; Function Attrs: nounwind uwtable
define range(i32 -1, 1) i32 @H5Otoken_cmp(i64 noundef %0, ptr noundef %1, ptr noundef %2, ptr noundef %3) local_unnamed_addr #0 {
  %5 = load i8, ptr @H5_libinit_g, align 1
  %6 = trunc i8 %5 to i1
  %7 = load i8, ptr @H5_libterm_g, align 1
  %8 = trunc i8 %7 to i1
  %9 = select i1 %6, i1 true, i1 %8
  br i1 %9, label %17, label %10

10:                                               ; preds = %4
  %11 = tail call i32 @H5_init_library() #4
  %12 = icmp slt i32 %11, 0
  br i1 %12, label %13, label %17

13:                                               ; preds = %10
  %14 = load i64, ptr @H5E_FUNC_g, align 8
  %15 = load i64, ptr @H5E_CANTINIT_g, align 8
  %16 = tail call i32 (ptr, ptr, i32, i64, i64, ptr, ...) @H5E_printf_stack(ptr noundef nonnull @.str, ptr noundef nonnull @__func__.H5Otoken_cmp, i32 noundef 2215, i64 noundef %14, i64 noundef %15, ptr noundef nonnull @.str.1) #4
  br label %.thread25

17:                                               ; preds = %10, %4
  %18 = tail call i32 @H5CX_push() #4
  %19 = icmp slt i32 %18, 0
  br i1 %19, label %20, label %24

20:                                               ; preds = %17
  %21 = load i64, ptr @H5E_FUNC_g, align 8
  %22 = load i64, ptr @H5E_CANTSET_g, align 8
  %23 = tail call i32 (ptr, ptr, i32, i64, i64, ptr, ...) @H5E_printf_stack(ptr noundef nonnull @.str, ptr noundef nonnull @__func__.H5Otoken_cmp, i32 noundef 2215, i64 noundef %21, i64 noundef %22, ptr noundef nonnull @.str.2) #4
  br label %.thread25

24:                                               ; preds = %17
  %25 = tail call i32 @H5E_clear_stack() #4
  %26 = tail call ptr @H5VL_vol_object(i64 noundef %0) #4
  %27 = icmp eq ptr %26, null
  br i1 %27, label %28, label %32

28:                                               ; preds = %24
  %29 = load i64, ptr @H5E_ARGS_g, align 8
  %30 = load i64, ptr @H5E_BADTYPE_g, align 8
  %31 = tail call i32 (ptr, ptr, i32, i64, i64, ptr, ...) @H5E_printf_stack(ptr noundef nonnull @.str, ptr noundef nonnull @__func__.H5Otoken_cmp, i32 noundef 2219, i64 noundef %29, i64 noundef %30, ptr noundef nonnull @.str.21) #4
  br label %.thread31

32:                                               ; preds = %24
  %33 = icmp eq ptr %3, null
  br i1 %33, label %34, label %38

34:                                               ; preds = %32
  %35 = load i64, ptr @H5E_ARGS_g, align 8
  %36 = load i64, ptr @H5E_BADVALUE_g, align 8
  %37 = tail call i32 (ptr, ptr, i32, i64, i64, ptr, ...) @H5E_printf_stack(ptr noundef nonnull @.str, ptr noundef nonnull @__func__.H5Otoken_cmp, i32 noundef 2221, i64 noundef %35, i64 noundef %36, ptr noundef nonnull @.str.87) #4
  br label %.thread31

38:                                               ; preds = %32
  %39 = tail call i32 @H5VL_token_cmp(ptr noundef nonnull %26, ptr noundef %1, ptr noundef %2, ptr noundef nonnull %3) #4
  %40 = icmp slt i32 %39, 0
  br i1 %40, label %41, label %46

41:                                               ; preds = %38
  %42 = load i64, ptr @H5E_OHDR_g, align 8
  %43 = load i64, ptr @H5E_CANTCOMPARE_g, align 8
  %44 = tail call i32 (ptr, ptr, i32, i64, i64, ptr, ...) @H5E_printf_stack(ptr noundef nonnull @.str, ptr noundef nonnull @__func__.H5Otoken_cmp, i32 noundef 2225, i64 noundef %42, i64 noundef %43, ptr noundef nonnull @.str.88) #4
  br label %.thread31

.thread31:                                        ; preds = %41, %34, %28
  %45 = tail call i32 @H5CX_pop(i1 noundef zeroext true) #4
  br label %.thread25

46:                                               ; preds = %38
  %47 = tail call i32 @H5CX_pop(i1 noundef zeroext true) #4
  br label %49

.thread25:                                        ; preds = %20, %13, %.thread31
  %48 = tail call i32 @H5E_dump_api_stack() #4
  br label %49

49:                                               ; preds = %46, %.thread25
  %.0142028 = phi i32 [ -1, %.thread25 ], [ 0, %46 ]
  ret i32 %.0142028
}